target datalayout = "e-m:e-p270:32:32-p271:32:32-p272:64:64-i64:64-i128:128-f80:128-n8:16:32:64-S128"
target triple = "x86_64-pc-linux-gnu"

@SDL_environment = internal global ptr null, align 8

; Function Attrs: nounwind uwtable
define hidden ptr @SDL_GetEnvironment_REAL() #0 {
  %1 = load ptr, ptr @SDL_environment, align 8
  %2 = icmp ne ptr %1, null
  br i1 %2, label %5, label %3

3:                                                ; preds = %0
  %4 = call ptr @SDL_CreateEnvironment_REAL(i1 noundef zeroext true)
  store ptr %4, ptr @SDL_environment, align 8
  br label %5

5:                                                ; preds = %3, %0
  %6 = load ptr, ptr @SDL_environment, align 8
  ret ptr %6
}

; Function Attrs: nounwind uwtable
define hidden i32 @SDL_unsetenv_unsafe_REAL(ptr noundef %0) #0 {
  %2 = alloca i32, align 4
  %3 = alloca ptr, align 8
  store ptr %0, ptr %3, align 8
  %4 = load ptr, ptr %3, align 8
  %5 = icmp ne ptr %4, null
  br i1 %5, label %6, label %15

6:                                                ; preds = %1
  %7 = load ptr, ptr %3, align 8
  %8 = load i8, ptr %7, align 1
  %9 = sext i8 %8 to i32
  %10 = icmp eq i32 %9, 0
  br i1 %10, label %15, label %11

11:                                               ; preds = %6
  %12 = load ptr, ptr %3, align 8
  %13 = call ptr @SDL_strchr_REAL(ptr noundef %12, i32 noundef 61)
  %14 = icmp ne ptr %13, null
  br i1 %14, label %15, label %16

15:                                               ; preds = %11, %6, %1
  store i32 -1, ptr %2, align 4
  br label %22

16:                                               ; preds = %11
  %17 = call ptr @SDL_GetEnvironment_REAL()
  %18 = load ptr, ptr %3, align 8
  %19 = call zeroext i1 @SDL_UnsetEnvironmentVariable_REAL(ptr noundef %17, ptr noundef %18)
  %20 = load ptr, ptr %3, align 8
  %21 = call i32 @unsetenv(ptr noundef %20) #7
  store i32 %21, ptr %2, align 4
  br label %22

22:                                               ; preds = %16, %15
  %23 = load i32, ptr %2, align 4
  ret i32 %23
}