; Function Attrs: nounwind uwtable
define hidden noundef i32 @SDL_unsetenv_unsafe_REAL(ptr noundef %0) local_unnamed_addr #0 {
  %.not = icmp eq ptr %0, null
  br i1 %.not, label %14, label %2

2:                                                ; preds = %1
  %3 = load i8, ptr %0, align 1
  %4 = icmp eq i8 %3, 0
  br i1 %4, label %14, label %5

5:                                                ; preds = %2
  %6 = tail call ptr @SDL_strchr_REAL(ptr noundef nonnull %0, i32 noundef 61) #11
  %.not6 = icmp eq ptr %6, null
  br i1 %.not6, label %7, label %14

7:                                                ; preds = %5
  %8 = load ptr, ptr @SDL_environment, align 8
  %.not.i = icmp eq ptr %8, null
  br i1 %.not.i, label %9, label %SDL_GetEnvironment_REAL.exit

9:                                                ; preds = %7
  %10 = tail call ptr @SDL_CreateEnvironment_REAL(i1 noundef zeroext true)
  store ptr %10, ptr @SDL_environment, align 8
  br label %SDL_GetEnvironment_REAL.exit

SDL_GetEnvironment_REAL.exit:                     ; preds = %7, %9
  %11 = phi ptr [ %10, %9 ], [ %8, %7 ]
  %12 = tail call zeroext i1 @SDL_UnsetEnvironmentVariable_REAL(ptr noundef %11, ptr noundef nonnull %0)
  %13 = tail call i32 @unsetenv(ptr noundef nonnull %0) #11
  br label %14

14:                                               ; preds = %1, %2, %5, %SDL_GetEnvironment_REAL.exit
  %.0 = phi i32 [ %13, %SDL_GetEnvironment_REAL.exit ], [ -1, %5 ], [ -1, %2 ], [ -1, %1 ]
  ret i32 %.0
}